target datalayout = "e-m:e-p270:32:32-p271:32:32-p272:64:64-i64:64-i128:128-f80:128-n8:16:32:64-S128"
target triple = "x86_64-pc-linux-gnu"

%struct._per_sequence_t = type { ptr, i32, i32, ptr }
%struct._asn1_ctx_t = type { i32, i32, i8, ptr, ptr, ptr, ptr, ptr, %struct.anon.0, %struct.anon.3, %struct.anon.4, ptr }
%struct.anon.0 = type { i32, i8, i8, i8, ptr, ptr, i32, i32, ptr, ptr, ptr, %union.anon }
%union.anon = type { %struct.anon.1 }
%struct.anon.1 = type { ptr }
%struct.anon.3 = type { ptr, ptr, ptr }
%struct.anon.4 = type { i32, i8, ptr, i32, i32, ptr, ptr, ptr, %union.anon.5 }
%union.anon.5 = type { %struct.anon.6 }
%struct.anon.6 = type { ptr }

@hf_atn_ulcs_Fully_encoded_data_PDU = internal global i32 0, align 4
@hf_atn_ulcs_ACSE_apdu_PDU = internal global i32 0, align 4
@hf_atn_ses_type = internal global i32 0, align 4
@hf_atn_ses_param_ind = internal global i32 0, align 4
@hf_atn_ses_param_b1 = internal global i32 0, align 4
@hf_atn_ses_param_b2 = internal global i32 0, align 4
@hf_atn_pres_err = internal global i32 0, align 4
@hf_atn_pres_pdu_type = internal global i32 0, align 4
@ett_atn_ulcs_Fully_encoded_data = internal global i32 0, align 4
@ett_atn_ulcs_ACSE_apdu = internal global i32 0, align 4
@ett_atn_ses = internal global i32 0, align 4
@ett_atn_pres = internal global i32 0, align 4
@ett_atn_acse = internal global i32 0, align 4
@ett_atn_ulcs = internal global i32 0, align 4
@proto_atn_ulcs = internal global i32 0, align 4
@root_tree = internal global ptr null, align 8
@.str.258 = private unnamed_addr constant [49 x i8] c"ICAO Doc9705 ULCS Session (ISO 8326/8327-1:1994)\00", align 1
@.str.259 = private unnamed_addr constant [54 x i8] c"ICAO Doc9705 ULCS Presentation (ISO 8822/8823-1:1994)\00", align 1
@.str.260 = private unnamed_addr constant [12 x i8] c"%s (0x%02x)\00", align 1
@.str.261 = private unnamed_addr constant [2 x i8] c"?\00", align 1
@.str.262 = private unnamed_addr constant [46 x i8] c"ICAO Doc9705 ULCS ACSE (ISO 8649/8650-1:1996)\00", align 1
@Fully_encoded_data_sequence_of = internal constant [1 x %struct._per_sequence_t] [%struct._per_sequence_t { ptr @hf_atn_ulcs_Fully_encoded_data_item, i32 0, i32 0, ptr @dissect_atn_ulcs_PDV_list }], align 16

; Function Attrs: null_pointer_is_valid sspstrong uwtable
define internal i32 @dissect_atn_ulcs_ACSE_apdu(ptr noundef %0, i32 noundef %1, ptr noundef %2, ptr noundef %3, i32 noundef %4) #0 {
  %6 = alloca ptr, align 8
  %7 = alloca i32, align 4
  %8 = alloca ptr, align 8
  %9 = alloca ptr, align 8
  %10 = alloca i32, align 4
  store ptr %0, ptr %6, align 8
  store i32 %1, ptr %7, align 4
  store ptr %2, ptr %8, align 8
  store ptr %3, ptr %9, align 8
  store i32 %4, ptr %10, align 4
  %11 = load ptr, ptr %6, align 8
  %12 = load i32, ptr %7, align 4
  %13 = load ptr, ptr %8, align 8
  %14 = load ptr, ptr %9, align 8
  %15 = load i32, ptr %10, align 4
  %16 = load i32, ptr @ett_atn_ulcs_ACSE_apdu, align 4
  %17 = call i32 @dissect_per_choice(ptr noundef %11, i32 noundef %12, ptr noundef %13, ptr noundef %14, i32 noundef %15, i32 noundef %16, ptr noundef @ACSE_apdu_choice, ptr noundef null)
  store i32 %17, ptr %7, align 4
  %18 = load i32, ptr %7, align 4
  ret i32 %18
}

; Function Attrs: null_pointer_is_valid sspstrong uwtable
define internal i32 @dissect_atn_ulcs_Fully_encoded_data(ptr noundef %0, i32 noundef %1, ptr noundef %2, ptr noundef %3, i32 noundef %4) #0 {
  %6 = alloca ptr, align 8
  %7 = alloca i32, align 4
  %8 = alloca ptr, align 8
  %9 = alloca ptr, align 8
  %10 = alloca i32, align 4
  store ptr %0, ptr %6, align 8
  store i32 %1, ptr %7, align 4
  store ptr %2, ptr %8, align 8
  store ptr %3, ptr %9, align 8
  store i32 %4, ptr %10, align 4
  %11 = load ptr, ptr %6, align 8
  %12 = load i32, ptr %7, align 4
  %13 = load ptr, ptr %8, align 8
  %14 = load ptr, ptr %9, align 8
  %15 = load i32, ptr %10, align 4
  %16 = load i32, ptr @ett_atn_ulcs_Fully_encoded_data, align 4
  %17 = call i32 @dissect_per_constrained_sequence_of(ptr noundef %11, i32 noundef %12, ptr noundef %13, ptr noundef %14, i32 noundef %15, i32 noundef %16, ptr noundef @Fully_encoded_data_sequence_of, i32 noundef 1, i32 noundef 1, i1 noundef zeroext true)
  store i32 %17, ptr %7, align 4
  %18 = load i32, ptr %7, align 4
  ret i32 %18
}

; Function Attrs: null_pointer_is_valid sspstrong uwtable
define internal i32 @dissect_ACSE_apdu_PDU(ptr noundef %0, ptr noundef %1, ptr noundef %2, ptr noundef %3) #0 {
  %5 = alloca ptr, align 8
  %6 = alloca ptr, align 8
  %7 = alloca ptr, align 8
  %8 = alloca ptr, align 8
  %9 = alloca i32, align 4
  %10 = alloca %struct._asn1_ctx_t, align 8
  store ptr %0, ptr %5, align 8
  store ptr %1, ptr %6, align 8
  store ptr %2, ptr %7, align 8
  store ptr %3, ptr %8, align 8
  call void @llvm.lifetime.start.p0(i64 4, ptr %9) #9
  store i32 0, ptr %9, align 4
  call void @llvm.lifetime.start.p0(i64 208, ptr %10) #9
  %11 = load ptr, ptr %6, align 8
  call void @asn1_ctx_init(ptr noundef %10, i32 noundef 1, i1 noundef zeroext false, ptr noundef %11)
  %12 = load ptr, ptr %5, align 8
  %13 = load i32, ptr %9, align 4
  %14 = load ptr, ptr %7, align 8
  %15 = load i32, ptr @hf_atn_ulcs_ACSE_apdu_PDU, align 4
  %16 = call i32 @dissect_atn_ulcs_ACSE_apdu(ptr noundef %12, i32 noundef %13, ptr noundef %10, ptr noundef %14, i32 noundef %15)
  store i32 %16, ptr %9, align 4
  %17 = load i32, ptr %9, align 4
  %18 = add i32 %17, 7
  store i32 %18, ptr %9, align 4
  %19 = load i32, ptr %9, align 4
  %20 = ashr i32 %19, 3
  store i32 %20, ptr %9, align 4
  %21 = load i32, ptr %9, align 4
  call void @llvm.lifetime.end.p0(i64 208, ptr %10) #9
  call void @llvm.lifetime.end.p0(i64 4, ptr %9) #9
  ret i32 %21
}

; Function Attrs: null_pointer_is_valid sspstrong uwtable
define internal i32 @dissect_Fully_encoded_data_PDU(ptr noundef %0, ptr noundef %1, ptr noundef %2, ptr noundef %3) #0 {
  %5 = alloca ptr, align 8
  %6 = alloca ptr, align 8
  %7 = alloca ptr, align 8
  %8 = alloca ptr, align 8
  %9 = alloca i32, align 4
  %10 = alloca %struct._asn1_ctx_t, align 8
  store ptr %0, ptr %5, align 8
  store ptr %1, ptr %6, align 8
  store ptr %2, ptr %7, align 8
  store ptr %3, ptr %8, align 8
  call void @llvm.lifetime.start.p0(i64 4, ptr %9) #9
  store i32 0, ptr %9, align 4
  call void @llvm.lifetime.start.p0(i64 208, ptr %10) #9
  %11 = load ptr, ptr %6, align 8
  call void @asn1_ctx_init(ptr noundef %10, i32 noundef 1, i1 noundef zeroext false, ptr noundef %11)
  %12 = load ptr, ptr %5, align 8
  %13 = load i32, ptr %9, align 4
  %14 = load ptr, ptr %7, align 8
  %15 = load i32, ptr @hf_atn_ulcs_Fully_encoded_data_PDU, align 4
  %16 = call i32 @dissect_atn_ulcs_Fully_encoded_data(ptr noundef %12, i32 noundef %13, ptr noundef %10, ptr noundef %14, i32 noundef %15)
  store i32 %16, ptr %9, align 4
  %17 = load i32, ptr %9, align 4
  %18 = add i32 %17, 7
  store i32 %18, ptr %9, align 4
  %19 = load i32, ptr %9, align 4
  %20 = ashr i32 %19, 3
  store i32 %20, ptr %9, align 4
  %21 = load i32, ptr %9, align 4
  call void @llvm.lifetime.end.p0(i64 208, ptr %10) #9
  call void @llvm.lifetime.end.p0(i64 4, ptr %9) #9
  ret i32 %21
}

; Function Attrs: null_pointer_is_valid sspstrong uwtable
define internal i32 @dissect_atn_ulcs(ptr noundef %0, ptr noundef %1, ptr noundef %2, ptr noundef %3) #0 {
  %5 = alloca i32, align 4
  %6 = alloca ptr, align 8
  %7 = alloca ptr, align 8
  %8 = alloca ptr, align 8
  %9 = alloca ptr, align 8
  %10 = alloca i32, align 4
  %11 = alloca ptr, align 8
  %12 = alloca ptr, align 8
  %13 = alloca i8, align 1
  %14 = alloca i8, align 1
  %15 = alloca i16, align 2
  %16 = alloca i32, align 4
  store ptr %0, ptr %6, align 8
  store ptr %1, ptr %7, align 8
  store ptr %2, ptr %8, align 8
  store ptr %3, ptr %9, align 8
  call void @llvm.lifetime.start.p0(i64 4, ptr %10) #9
  store i32 0, ptr %10, align 4
  call void @llvm.lifetime.start.p0(i64 8, ptr %11) #9
  store ptr null, ptr %11, align 8
  call void @llvm.lifetime.start.p0(i64 8, ptr %12) #9
  store ptr null, ptr %12, align 8
  call void @llvm.lifetime.start.p0(i64 1, ptr %13) #9
  store i8 0, ptr %13, align 1
  call void @llvm.lifetime.start.p0(i64 1, ptr %14) #9
  store i8 0, ptr %14, align 1
  call void @llvm.lifetime.start.p0(i64 2, ptr %15) #9
  store i16 0, ptr %15, align 2
  %17 = load ptr, ptr %8, align 8
  store ptr %17, ptr @root_tree, align 8
  %18 = load ptr, ptr %9, align 8
  %19 = ptrtoint ptr %18 to i64
  %20 = trunc i64 %19 to i32
  %21 = icmp eq i32 %20, 0
  br i1 %21, label %22, label %39

22:                                               ; preds = %4
  %23 = load ptr, ptr %8, align 8
  %24 = load i32, ptr @proto_atn_ulcs, align 4
  %25 = load ptr, ptr %6, align 8
  %26 = call ptr @proto_tree_add_item(ptr noundef %23, i32 noundef %24, ptr noundef %25, i32 noundef 0, i32 noundef 0, i32 noundef 0)
  store ptr %26, ptr %11, align 8
  %27 = load ptr, ptr %11, align 8
  %28 = load i32, ptr @ett_atn_ulcs, align 4
  %29 = call ptr @proto_item_add_subtree(ptr noundef %27, i32 noundef %28)
  store ptr %29, ptr %12, align 8
  %30 = load ptr, ptr %6, align 8
  %31 = load ptr, ptr %7, align 8
  %32 = load ptr, ptr %12, align 8
  %33 = call i32 @dissect_Fully_encoded_data_PDU(ptr noundef %30, ptr noundef %31, ptr noundef %32, ptr noundef null)
  %34 = load i32, ptr %10, align 4
  %35 = load ptr, ptr %6, align 8
  %36 = load i32, ptr %10, align 4
  %37 = call i32 @tvb_reported_length_remaining(ptr noundef %35, i32 noundef %36)
  %38 = add i32 %34, %37
  store i32 %38, ptr %5, align 4
  store i32 1, ptr %16, align 4
  br label %136

39:                                               ; preds = %4
  %40 = load ptr, ptr %9, align 8
  %41 = ptrtoint ptr %40 to i64
  %42 = trunc i64 %41 to i32
  %43 = icmp eq i32 %42, 1
  br i1 %43, label %44, label %134

44:                                               ; preds = %39
  %45 = load ptr, ptr %6, align 8
  %46 = load i32, ptr %10, align 4
  %47 = call zeroext i16 @tvb_get_ntohs(ptr noundef %45, i32 noundef %46)
  store i16 %47, ptr %15, align 2
  %48 = load ptr, ptr %8, align 8
  %49 = load ptr, ptr %6, align 8
  %50 = load i32, ptr %10, align 4
  %51 = load i32, ptr @ett_atn_ses, align 4
  %52 = call ptr @proto_tree_add_subtree(ptr noundef %48, ptr noundef %49, i32 noundef %50, i32 noundef 0, i32 noundef %51, ptr noundef null, ptr noundef @.str.258)
  store ptr %52, ptr %12, align 8
  %53 = load ptr, ptr %6, align 8
  %54 = load i32, ptr %10, align 4
  %55 = call zeroext i8 @tvb_get_uint8(ptr noundef %53, i32 noundef %54)
  store i8 %55, ptr %14, align 1
  %56 = load ptr, ptr %12, align 8
  %57 = load i32, ptr @hf_atn_ses_type, align 4
  %58 = load ptr, ptr %6, align 8
  %59 = load i32, ptr %10, align 4
  %60 = call ptr @proto_tree_add_item(ptr noundef %56, i32 noundef %57, ptr noundef %58, i32 noundef %59, i32 noundef 1, i32 noundef 0)
  %61 = load i8, ptr %14, align 1
  %62 = zext i8 %61 to i32
  %63 = and i32 %62, 248
  switch i32 %63, label %80 [
    i32 224, label %64
    i32 160, label %64
  ]

64:                                               ; preds = %44, %44
  %65 = load ptr, ptr %12, align 8
  %66 = load i32, ptr @hf_atn_ses_param_ind, align 4
  %67 = load ptr, ptr %6, align 8
  %68 = load i32, ptr %10, align 4
  %69 = call ptr @proto_tree_add_item(ptr noundef %65, i32 noundef %66, ptr noundef %67, i32 noundef %68, i32 noundef 1, i32 noundef 0)
  %70 = load ptr, ptr %12, align 8
  %71 = load i32, ptr @hf_atn_ses_param_b2, align 4
  %72 = load ptr, ptr %6, align 8
  %73 = load i32, ptr %10, align 4
  %74 = call ptr @proto_tree_add_item(ptr noundef %70, i32 noundef %71, ptr noundef %72, i32 noundef %73, i32 noundef 1, i32 noundef 0)
  %75 = load ptr, ptr %12, align 8
  %76 = load i32, ptr @hf_atn_ses_param_b1, align 4
  %77 = load ptr, ptr %6, align 8
  %78 = load i32, ptr %10, align 4
  %79 = call ptr @proto_tree_add_item(ptr noundef %75, i32 noundef %76, ptr noundef %77, i32 noundef %78, i32 noundef 1, i32 noundef 0)
  br label %81

80:                                               ; preds = %44
  br label %81

81:                                               ; preds = %80, %64
  %82 = load i32, ptr %10, align 4
  %83 = add i32 %82, 1
  store i32 %83, ptr %10, align 4
  %84 = load ptr, ptr %8, align 8
  %85 = load ptr, ptr %6, align 8
  %86 = load i32, ptr %10, align 4
  %87 = load i32, ptr @ett_atn_pres, align 4
  %88 = call ptr @proto_tree_add_subtree(ptr noundef %84, ptr noundef %85, i32 noundef %86, i32 noundef 0, i32 noundef %87, ptr noundef null, ptr noundef @.str.259)
  store ptr %88, ptr %12, align 8
  %89 = load ptr, ptr %6, align 8
  %90 = load i32, ptr %10, align 4
  %91 = call zeroext i8 @tvb_get_uint8(ptr noundef %89, i32 noundef %90)
  store i8 %91, ptr %13, align 1
  %92 = load ptr, ptr %12, align 8
  %93 = load i32, ptr @hf_atn_pres_pdu_type, align 4
  %94 = load ptr, ptr %6, align 8
  %95 = load i32, ptr %10, align 4
  %96 = load i16, ptr %15, align 2
  %97 = zext i16 %96 to i32
  %98 = load i16, ptr %15, align 2
  %99 = zext i16 %98 to i32
  %100 = and i32 %99, 63491
  %101 = call ptr @val_to_str_const(i32 noundef %100, ptr noundef @atn_pres_vals, ptr noundef @.str.261)
  %102 = load i8, ptr %13, align 1
  %103 = zext i8 %102 to i32
  %104 = call ptr (ptr, i32, ptr, i32, i32, i32, ptr, ...) @proto_tree_add_uint_format(ptr noundef %92, i32 noundef %93, ptr noundef %94, i32 noundef %95, i32 noundef 1, i32 noundef %97, ptr noundef @.str.260, ptr noundef %101, i32 noundef %103)
  %105 = load i8, ptr %14, align 1
  %106 = zext i8 %105 to i32
  %107 = and i32 %106, 248
  switch i32 %107, label %114 [
    i32 224, label %108
    i32 160, label %108
  ]

108:                                              ; preds = %81, %81
  %109 = load ptr, ptr %12, align 8
  %110 = load i32, ptr @hf_atn_pres_err, align 4
  %111 = load ptr, ptr %6, align 8
  %112 = load i32, ptr %10, align 4
  %113 = call ptr @proto_tree_add_item(ptr noundef %109, i32 noundef %110, ptr noundef %111, i32 noundef %112, i32 noundef 1, i32 noundef 0)
  br label %115

114:                                              ; preds = %81
  br label %115

115:                                              ; preds = %114, %108
  %116 = load i32, ptr %10, align 4
  %117 = add i32 %116, 1
  store i32 %117, ptr %10, align 4
  %118 = load ptr, ptr %8, align 8
  %119 = load ptr, ptr %6, align 8
  %120 = load i32, ptr %10, align 4
  %121 = load i32, ptr @ett_atn_acse, align 4
  %122 = call ptr @proto_tree_add_subtree(ptr noundef %118, ptr noundef %119, i32 noundef %120, i32 noundef 0, i32 noundef %121, ptr noundef null, ptr noundef @.str.262)
  store ptr %122, ptr %12, align 8
  %123 = load ptr, ptr %6, align 8
  %124 = load i32, ptr %10, align 4
  %125 = call ptr @tvb_new_subset_remaining(ptr noundef %123, i32 noundef %124)
  %126 = load ptr, ptr %7, align 8
  %127 = load ptr, ptr %12, align 8
  %128 = call i32 @dissect_ACSE_apdu_PDU(ptr noundef %125, ptr noundef %126, ptr noundef %127, ptr noundef null)
  %129 = load i32, ptr %10, align 4
  %130 = load ptr, ptr %6, align 8
  %131 = load i32, ptr %10, align 4
  %132 = call i32 @tvb_reported_length_remaining(ptr noundef %130, i32 noundef %131)
  %133 = add i32 %129, %132
  store i32 %133, ptr %5, align 4
  store i32 1, ptr %16, align 4
  br label %136

134:                                              ; preds = %39
  %135 = load i32, ptr %10, align 4
  store i32 %135, ptr %5, align 4
  store i32 1, ptr %16, align 4
  br label %136

136:                                              ; preds = %134, %115, %22
  call void @llvm.lifetime.end.p0(i64 2, ptr %15) #9
  call void @llvm.lifetime.end.p0(i64 1, ptr %14) #9
  call void @llvm.lifetime.end.p0(i64 1, ptr %13) #9
  call void @llvm.lifetime.end.p0(i64 8, ptr %12) #9
  call void @llvm.lifetime.end.p0(i64 8, ptr %11) #9
  call void @llvm.lifetime.end.p0(i64 4, ptr %10) #9
  %137 = load i32, ptr %5, align 4
  ret i32 %137
}