; Function Attrs: null_pointer_is_valid sspstrong uwtable
define internal i32 @dissect_atn_ulcs(ptr noundef %0, ptr noundef %1, ptr noundef %2, ptr noundef %3) #0 {
  %5 = alloca %struct._asn1_ctx_t, align 8
  %6 = alloca %struct._asn1_ctx_t, align 8
  store ptr %2, ptr @root_tree, align 8
  %7 = ptrtoint ptr %3 to i64
  %8 = trunc i64 %7 to i32
  switch i32 %8, label %55 [
    i32 0, label %9
    i32 1, label %18
  ]

9:                                                ; preds = %4
  %10 = load i32, ptr @proto_atn_ulcs, align 4
  %11 = tail call ptr @proto_tree_add_item(ptr noundef %2, i32 noundef %10, ptr noundef %0, i32 noundef 0, i32 noundef 0, i32 noundef 0)
  %12 = load i32, ptr @ett_atn_ulcs, align 4
  %13 = tail call ptr @proto_item_add_subtree(ptr noundef %11, i32 noundef %12)
  call void @llvm.lifetime.start.p0(i64 208, ptr nonnull %6) #6
  call void @asn1_ctx_init(ptr noundef nonnull %6, i32 noundef 1, i1 noundef zeroext false, ptr noundef %1)
  %14 = load i32, ptr @hf_atn_ulcs_Fully_encoded_data_PDU, align 4
  %15 = load i32, ptr @ett_atn_ulcs_Fully_encoded_data, align 4
  %16 = call i32 @dissect_per_constrained_sequence_of(ptr noundef %0, i32 noundef 0, ptr noundef nonnull %6, ptr noundef %13, i32 noundef %14, i32 noundef %15, ptr noundef nonnull @Fully_encoded_data_sequence_of, i32 noundef 1, i32 noundef 1, i1 noundef zeroext true)
  call void @llvm.lifetime.end.p0(i64 208, ptr nonnull %6) #6
  %17 = call i32 @tvb_reported_length_remaining(ptr noundef %0, i32 noundef 0)
  br label %55

18:                                               ; preds = %4
  %19 = tail call zeroext i16 @tvb_get_ntohs(ptr noundef %0, i32 noundef 0)
  %20 = load i32, ptr @ett_atn_ses, align 4
  %21 = tail call ptr @proto_tree_add_subtree(ptr noundef %2, ptr noundef %0, i32 noundef 0, i32 noundef 0, i32 noundef %20, ptr noundef null, ptr noundef nonnull @.str.258)
  %22 = tail call zeroext i8 @tvb_get_uint8(ptr noundef %0, i32 noundef 0)
  %23 = load i32, ptr @hf_atn_ses_type, align 4
  %24 = tail call ptr @proto_tree_add_item(ptr noundef %21, i32 noundef %23, ptr noundef %0, i32 noundef 0, i32 noundef 1, i32 noundef 0)
  %25 = and i8 %22, -8
  switch i8 %25, label %33 [
    i8 -32, label %26
    i8 -96, label %26
  ]

26:                                               ; preds = %18, %18
  %27 = load i32, ptr @hf_atn_ses_param_ind, align 4
  %28 = tail call ptr @proto_tree_add_item(ptr noundef %21, i32 noundef %27, ptr noundef %0, i32 noundef 0, i32 noundef 1, i32 noundef 0)
  %29 = load i32, ptr @hf_atn_ses_param_b2, align 4
  %30 = tail call ptr @proto_tree_add_item(ptr noundef %21, i32 noundef %29, ptr noundef %0, i32 noundef 0, i32 noundef 1, i32 noundef 0)
  %31 = load i32, ptr @hf_atn_ses_param_b1, align 4
  %32 = tail call ptr @proto_tree_add_item(ptr noundef %21, i32 noundef %31, ptr noundef %0, i32 noundef 0, i32 noundef 1, i32 noundef 0)
  br label %33

33:                                               ; preds = %18, %26
  %34 = load i32, ptr @ett_atn_pres, align 4
  %35 = tail call ptr @proto_tree_add_subtree(ptr noundef %2, ptr noundef %0, i32 noundef 1, i32 noundef 0, i32 noundef %34, ptr noundef null, ptr noundef nonnull @.str.259)
  %36 = tail call zeroext i8 @tvb_get_uint8(ptr noundef %0, i32 noundef 1)
  %37 = load i32, ptr @hf_atn_pres_pdu_type, align 4
  %38 = zext i16 %19 to i32
  %39 = and i32 %38, 63491
  %40 = tail call ptr @val_to_str_const(i32 noundef %39, ptr noundef nonnull @atn_pres_vals, ptr noundef nonnull @.str.261)
  %41 = zext i8 %36 to i32
  %42 = tail call ptr (ptr, i32, ptr, i32, i32, i32, ptr, ...) @proto_tree_add_uint_format(ptr noundef %35, i32 noundef %37, ptr noundef %0, i32 noundef 1, i32 noundef 1, i32 noundef %38, ptr noundef nonnull @.str.260, ptr noundef %40, i32 noundef %41)
  switch i8 %25, label %46 [
    i8 -32, label %43
    i8 -96, label %43
  ]

43:                                               ; preds = %33, %33
  %44 = load i32, ptr @hf_atn_pres_err, align 4
  %45 = tail call ptr @proto_tree_add_item(ptr noundef %35, i32 noundef %44, ptr noundef %0, i32 noundef 1, i32 noundef 1, i32 noundef 0)
  br label %46

46:                                               ; preds = %33, %43
  %47 = load i32, ptr @ett_atn_acse, align 4
  %48 = tail call ptr @proto_tree_add_subtree(ptr noundef %2, ptr noundef %0, i32 noundef 2, i32 noundef 0, i32 noundef %47, ptr noundef null, ptr noundef nonnull @.str.262)
  %49 = tail call ptr @tvb_new_subset_remaining(ptr noundef %0, i32 noundef 2)
  call void @llvm.lifetime.start.p0(i64 208, ptr nonnull %5) #6
  call void @asn1_ctx_init(ptr noundef nonnull %5, i32 noundef 1, i1 noundef zeroext false, ptr noundef %1)
  %50 = load i32, ptr @hf_atn_ulcs_ACSE_apdu_PDU, align 4
  %51 = load i32, ptr @ett_atn_ulcs_ACSE_apdu, align 4
  %52 = call i32 @dissect_per_choice(ptr noundef %49, i32 noundef 0, ptr noundef nonnull %5, ptr noundef %48, i32 noundef %50, i32 noundef %51, ptr noundef nonnull @ACSE_apdu_choice, ptr noundef null)
  call void @llvm.lifetime.end.p0(i64 208, ptr nonnull %5) #6
  %53 = call i32 @tvb_reported_length_remaining(ptr noundef %0, i32 noundef 2)
  %54 = add i32 %53, 2
  br label %55

55:                                               ; preds = %4, %46, %9
  %.0 = phi i32 [ %17, %9 ], [ %54, %46 ], [ 0, %4 ]
  ret i32 %.0
}